; Function Attrs: mustprogress uwtable
define dso_local void @_ZN7testing8internal27PrettyUnitTestResultPrinter14OnTestDisabledERKNS_8TestInfoE(ptr nonnull readnone align 8 captures(none) %0, ptr noundef nonnull readonly align 8 captures(none) dereferenceable(272) %1) unnamed_addr #3 align 2 {
  tail call void (i32, ptr, ...) @_ZN7testing8internalL13ColoredPrintfENS0_12_GLOBAL__N_110GTestColorEPKcz(i32 noundef 3, ptr noundef nonnull @.str.249)
  %3 = load ptr, ptr %1, align 8, !tbaa !23
  %4 = getelementptr inbounds nuw i8, ptr %1, i64 32
  %5 = load ptr, ptr %4, align 8, !tbaa !23
  %6 = tail call i32 (ptr, ...) @printf(ptr noundef nonnull dereferenceable(1) @.str.257, ptr noundef %3, ptr noundef %5)
  %putchar = tail call i32 @putchar(i32 10)
  %7 = load ptr, ptr @stdout, align 8, !tbaa !164
  %8 = tail call i32 @fflush(ptr noundef %7)
  ret void
}